; Function Attrs: nounwind sspstrong uwtable
define dso_local void @file_start_incoming_migration(ptr noundef readonly captures(none) %file_args, ptr noundef %errp) local_unnamed_addr #0 {
entry:
  %_now.i.i = alloca %struct.timeval, align 8
  %0 = load ptr, ptr %file_args, align 8
  %call = tail call noalias ptr @g_strdup(ptr noundef %0) #6
  %offset2 = getelementptr inbounds nuw i8, ptr %file_args, i64 8
  %1 = load i64, ptr %offset2, align 8
  call void @llvm.lifetime.start.p0(i64 16, ptr nonnull %_now.i.i)
  %2 = load i32, ptr @trace_events_enabled_count, align 4
  %tobool.i.i = icmp ne i32 %2, 0
  %3 = load i16, ptr @_TRACE_MIGRATION_FILE_INCOMING_DSTATE, align 2
  %tobool4.i.i = icmp ne i16 %3, 0
  %or.cond.i.i = select i1 %tobool.i.i, i1 %tobool4.i.i, i1 false
  br i1 %or.cond.i.i, label %land.lhs.true5.i.i, label %trace_migration_file_incoming.exit

land.lhs.true5.i.i:                               ; preds = %entry
  %4 = load i32, ptr @qemu_loglevel, align 4
  %and.i.i.i = and i32 %4, 32768
  %cmp.i.not.i.i = icmp eq i32 %and.i.i.i, 0
  br i1 %cmp.i.not.i.i, label %trace_migration_file_incoming.exit, label %if.then.i.i

if.then.i.i:                                      ; preds = %land.lhs.true5.i.i
  %5 = load i8, ptr @message_with_timestamp, align 1
  %tobool7.i.i = trunc i8 %5 to i1
  br i1 %tobool7.i.i, label %if.then8.i.i, label %if.else.i.i

if.then8.i.i:                                     ; preds = %if.then.i.i
  %call9.i.i = call i32 @gettimeofday(ptr noundef nonnull %_now.i.i, ptr noundef null) #6
  %call10.i.i = tail call i32 @qemu_get_thread_id() #6
  %6 = load i64, ptr %_now.i.i, align 8
  %tv_usec.i.i = getelementptr inbounds nuw i8, ptr %_now.i.i, i64 8
  %7 = load i64, ptr %tv_usec.i.i, align 8
  tail call void (ptr, ...) @qemu_log(ptr noundef nonnull @.str.9, i32 noundef %call10.i.i, i64 noundef %6, i64 noundef %7, ptr noundef %call) #6
  br label %trace_migration_file_incoming.exit

if.else.i.i:                                      ; preds = %if.then.i.i
  tail call void (ptr, ...) @qemu_log(ptr noundef nonnull @.str.10, ptr noundef %call) #6
  br label %trace_migration_file_incoming.exit

trace_migration_file_incoming.exit:               ; preds = %entry, %land.lhs.true5.i.i, %if.then8.i.i, %if.else.i.i
  call void @llvm.lifetime.end.p0(i64 16, ptr nonnull %_now.i.i)
  %call3 = tail call ptr @qio_channel_file_new_path(ptr noundef %call, i32 noundef 0, i32 noundef 0, ptr noundef %errp) #6
  %tobool.not = icmp eq ptr %call3, null
  br i1 %tobool.not, label %cleanup, label %if.end

if.end:                                           ; preds = %trace_migration_file_incoming.exit
  %call.i = tail call ptr @object_dynamic_cast_assert(ptr noundef nonnull %call3, ptr noundef nonnull @.str.7, ptr noundef nonnull @.str.8, i32 noundef 30, ptr noundef nonnull @__func__.QIO_CHANNEL) #6
  %tobool5.not = icmp eq i64 %1, 0
  br i1 %tobool5.not, label %if.end8, label %land.lhs.true

land.lhs.true:                                    ; preds = %if.end
  %call6 = tail call i64 @qio_channel_io_seek(ptr noundef %call.i, i64 noundef %1, i32 noundef 0, ptr noundef %errp) #6
  %cmp = icmp slt i64 %call6, 0
  br i1 %cmp, label %cleanup, label %if.end8

if.end8:                                          ; preds = %land.lhs.true, %if.end
  %call.i7 = tail call ptr @object_dynamic_cast_assert(ptr noundef %call.i, ptr noundef nonnull @.str.7, ptr noundef nonnull @.str.8, i32 noundef 30, ptr noundef nonnull @__func__.QIO_CHANNEL) #6
  tail call void @qio_channel_set_name(ptr noundef %call.i7, ptr noundef nonnull @.str.4) #6
  %call10 = tail call ptr @g_main_context_get_thread_default() #6
  %call11 = tail call i32 @qio_channel_add_watch_full(ptr noundef %call.i, i32 noundef 1, ptr noundef nonnull @file_accept_incoming_migration, ptr noundef null, ptr noundef null, ptr noundef %call10) #6
  br label %cleanup

cleanup:                                          ; preds = %land.lhs.true, %trace_migration_file_incoming.exit, %if.end8
  tail call void @g_free(ptr noundef %call) #6
  ret void
}